target datalayout = "e-m:e-p270:32:32-p271:32:32-p272:64:64-i64:64-i128:128-f80:128-n8:16:32:64-S128"
target triple = "x86_64-unknown-linux-gnu"

%"class.icu_75::PluralRules" = type <{ %"class.icu_75::UObject", ptr, ptr, i32, [4 x i8] }>
%"class.icu_75::UObject" = type { ptr }
%"class.icu_75::UnicodeString" = type { %"class.icu_75::Replaceable", %"union.icu_75::UnicodeString::StackBufferOrFields" }
%"class.icu_75::Replaceable" = type { %"class.icu_75::UObject" }
%"union.icu_75::UnicodeString::StackBufferOrFields" = type { %struct.anon.0, [32 x i8] }
%struct.anon.0 = type { i16, i32, i32, ptr }
%"class.icu_75::IFixedDecimal" = type { ptr }
%"class.icu_75::number::impl::DecimalQuantity" = type <{ %"class.icu_75::IFixedDecimal", i8, [3 x i8], i32, i32, i8, i8, [2 x i8], double, i32, i32, i32, i32, %union.anon, i8, i8, [6 x i8] }>
%union.anon = type { %struct.anon.9 }
%struct.anon.9 = type { ptr, i32 }
%"class.icu_75::number::impl::UFormattedNumberRangeData" = type { %"class.icu_75::FormattedValueStringBuilderImpl.base", [4 x i8], %"class.icu_75::number::impl::DecimalQuantity", %"class.icu_75::number::impl::DecimalQuantity", i32, [4 x i8] }
%"class.icu_75::FormattedValueStringBuilderImpl.base" = type <{ %"class.icu_75::FormattedValue", %"class.icu_75::FormattedStringBuilder", %"struct.icu_75::FormattedStringBuilder::Field", [7 x i8], %"class.icu_75::MaybeStackArray.13", i32 }>
%"class.icu_75::FormattedValue" = type { ptr }
%"class.icu_75::FormattedStringBuilder" = type { i8, %"union.icu_75::FormattedStringBuilder::ValueOrHeapArray", %"union.icu_75::FormattedStringBuilder::ValueOrHeapArray.11", i32, i32 }
%"union.icu_75::FormattedStringBuilder::ValueOrHeapArray" = type { %struct.anon.10, [64 x i8] }
%struct.anon.10 = type { ptr, i32 }
%"union.icu_75::FormattedStringBuilder::ValueOrHeapArray.11" = type { %struct.anon.12, [24 x i8] }
%struct.anon.12 = type { ptr, i32 }
%"struct.icu_75::FormattedStringBuilder::Field" = type { i8 }
%"class.icu_75::MaybeStackArray.13" = type { ptr, i32, i8, [8 x %"struct.icu_75::SpanInfo"] }
%"struct.icu_75::SpanInfo" = type { i32, i32, i32, i32 }
%struct.anon = type { i16, [27 x i16] }

@_ZTVN6icu_757UObjectE = external unnamed_addr constant { [5 x ptr] }, align 8
@_ZTVN6icu_7513UnicodeStringE = external unnamed_addr constant { [13 x ptr] }, align 8
@_ZTVN6icu_7511ReplaceableE = external unnamed_addr constant { [13 x ptr] }, align 8

; Function Attrs: mustprogress nounwind uwtable
define linkonce_odr void @_ZN6icu_757UObjectC2Ev(ptr noundef nonnull align 8 dereferenceable(8) %this) unnamed_addr #0 comdat align 2 {
entry:
  %this.addr = alloca ptr, align 8
  store ptr %this, ptr %this.addr, align 8
  %this1 = load ptr, ptr %this.addr, align 8
  store ptr getelementptr inbounds ({ [5 x ptr] }, ptr @_ZTVN6icu_757UObjectE, i32 0, i32 0, i32 2), ptr %this1, align 8
  ret void
}

; Function Attrs: mustprogress nounwind uwtable
define linkonce_odr void @_ZN6icu_7511ReplaceableC2Ev(ptr noundef nonnull align 8 dereferenceable(8) %this) unnamed_addr #0 comdat align 2 {
entry:
  %this.addr = alloca ptr, align 8
  store ptr %this, ptr %this.addr, align 8
  %this1 = load ptr, ptr %this.addr, align 8
  call void @_ZN6icu_757UObjectC2Ev(ptr noundef nonnull align 8 dereferenceable(8) %this1) #13
  store ptr getelementptr inbounds ({ [13 x ptr] }, ptr @_ZTVN6icu_7511ReplaceableE, i32 0, i32 0, i32 2), ptr %this1, align 8
  ret void
}

; Function Attrs: mustprogress uwtable
define linkonce_odr void @_ZN6icu_7513UnicodeStringC2Ev(ptr noundef nonnull align 8 dereferenceable(64) %this) unnamed_addr #1 comdat align 2 {
entry:
  %this.addr = alloca ptr, align 8
  store ptr %this, ptr %this.addr, align 8
  %this1 = load ptr, ptr %this.addr, align 8
  call void @_ZN6icu_7511ReplaceableC2Ev(ptr noundef nonnull align 8 dereferenceable(8) %this1)
  store ptr getelementptr inbounds ({ [13 x ptr] }, ptr @_ZTVN6icu_7513UnicodeStringE, i32 0, i32 0, i32 2), ptr %this1, align 8
  %fUnion2 = getelementptr inbounds %"class.icu_75::UnicodeString", ptr %this1, i32 0, i32 1
  %fLengthAndFlags = getelementptr inbounds %struct.anon, ptr %fUnion2, i32 0, i32 0
  store i16 2, ptr %fLengthAndFlags, align 8
  ret void
}

; Function Attrs: mustprogress uwtable
define linkonce_odr noundef i32 @_ZN6icu_7514StandardPlural10fromStringERKNS_13UnicodeStringER10UErrorCode(ptr noundef nonnull align 8 dereferenceable(64) %keyword, ptr noundef nonnull align 4 dereferenceable(4) %errorCode) #1 comdat align 2 {
entry:
  %keyword.addr = alloca ptr, align 8
  %errorCode.addr = alloca ptr, align 8
  store ptr %keyword, ptr %keyword.addr, align 8
  store ptr %errorCode, ptr %errorCode.addr, align 8
  %0 = load ptr, ptr %keyword.addr, align 8
  %1 = load ptr, ptr %errorCode.addr, align 8
  %call = call noundef i32 @_ZN6icu_7514StandardPlural15indexFromStringERKNS_13UnicodeStringER10UErrorCode(ptr noundef nonnull align 8 dereferenceable(64) %0, ptr noundef nonnull align 4 dereferenceable(4) %1)
  ret i32 %call
}

; Function Attrs: mustprogress uwtable
define linkonce_odr void @_ZN6icu_7511ICU_Utility15makeBogusStringEv(ptr noalias sret(%"class.icu_75::UnicodeString") align 8 %agg.result) #1 comdat align 2 personality ptr @__gxx_personality_v0 {
entry:
  %result.ptr = alloca ptr, align 8
  %nrvo = alloca i1, align 1
  %exn.slot = alloca ptr, align 8
  %ehselector.slot = alloca i32, align 4
  store ptr %agg.result, ptr %result.ptr, align 8
  store i1 false, ptr %nrvo, align 1
  call void @_ZN6icu_7513UnicodeStringC2Ev(ptr noundef nonnull align 8 dereferenceable(64) %agg.result)
  invoke void @_ZN6icu_7513UnicodeString10setToBogusEv(ptr noundef nonnull align 8 dereferenceable(64) %agg.result)
          to label %invoke.cont unwind label %lpad

invoke.cont:                                      ; preds = %entry
  store i1 true, ptr %nrvo, align 1
  %nrvo.val = load i1, ptr %nrvo, align 1
  br i1 %nrvo.val, label %nrvo.skipdtor, label %nrvo.unused

lpad:                                             ; preds = %entry
  %0 = landingpad { ptr, i32 }
          cleanup
  %1 = extractvalue { ptr, i32 } %0, 0
  store ptr %1, ptr %exn.slot, align 8
  %2 = extractvalue { ptr, i32 } %0, 1
  store i32 %2, ptr %ehselector.slot, align 4
  call void @_ZN6icu_7513UnicodeStringD1Ev(ptr noundef nonnull align 8 dereferenceable(64) %agg.result) #13
  br label %eh.resume

nrvo.unused:                                      ; preds = %invoke.cont
  call void @_ZN6icu_7513UnicodeStringD1Ev(ptr noundef nonnull align 8 dereferenceable(64) %agg.result) #13
  br label %nrvo.skipdtor

nrvo.skipdtor:                                    ; preds = %nrvo.unused, %invoke.cont
  ret void

eh.resume:                                        ; preds = %lpad
  %exn = load ptr, ptr %exn.slot, align 8
  %sel = load i32, ptr %ehselector.slot, align 4
  %lpad.val = insertvalue { ptr, i32 } poison, ptr %exn, 0
  %lpad.val1 = insertvalue { ptr, i32 } %lpad.val, i32 %sel, 1
  resume { ptr, i32 } %lpad.val1
}

; Function Attrs: mustprogress nounwind uwtable
define internal noundef signext i8 @_ZL9U_FAILURE10UErrorCode(i32 noundef %code) #0 {
entry:
  %code.addr = alloca i32, align 4
  store i32 %code, ptr %code.addr, align 4
  %0 = load i32, ptr %code.addr, align 4
  %cmp = icmp sgt i32 %0, 0
  %conv = zext i1 %cmp to i8
  ret i8 %conv
}

; Function Attrs: mustprogress uwtable
define void @_ZNK6icu_7511PluralRules6selectEPKNS_6number4impl25UFormattedNumberRangeDataER10UErrorCode(ptr noalias sret(%"class.icu_75::UnicodeString") align 8 %agg.result, ptr noundef nonnull align 8 dereferenceable(28) %this, ptr noundef %impl, ptr noundef nonnull align 4 dereferenceable(4) %status) #1 align 2 personality ptr @__gxx_personality_v0 {
entry:
  %result.ptr = alloca ptr, align 8
  %this.addr = alloca ptr, align 8
  %impl.addr = alloca ptr, align 8
  %status.addr = alloca ptr, align 8
  %form1 = alloca i32, align 4
  %ref.tmp = alloca %"class.icu_75::UnicodeString", align 8
  %exn.slot = alloca ptr, align 8
  %ehselector.slot = alloca i32, align 4
  %form2 = alloca i32, align 4
  %ref.tmp10 = alloca %"class.icu_75::UnicodeString", align 8
  %result = alloca i32, align 4
  store ptr %agg.result, ptr %result.ptr, align 8
  store ptr %this, ptr %this.addr, align 8
  store ptr %impl, ptr %impl.addr, align 8
  store ptr %status, ptr %status.addr, align 8
  %this1 = load ptr, ptr %this.addr, align 8
  %0 = load ptr, ptr %status.addr, align 8
  %1 = load i32, ptr %0, align 4
  %call = call noundef signext i8 @_ZL9U_FAILURE10UErrorCode(i32 noundef %1)
  %tobool = icmp ne i8 %call, 0
  br i1 %tobool, label %if.then, label %if.end

if.then:                                          ; preds = %entry
  call void @_ZN6icu_7511ICU_Utility15makeBogusStringEv(ptr sret(%"class.icu_75::UnicodeString") align 8 %agg.result)
  br label %return

if.end:                                           ; preds = %entry
  %mInternalStatus = getelementptr inbounds %"class.icu_75::PluralRules", ptr %this1, i32 0, i32 3
  %2 = load i32, ptr %mInternalStatus, align 8
  %call2 = call noundef signext i8 @_ZL9U_FAILURE10UErrorCode(i32 noundef %2)
  %tobool3 = icmp ne i8 %call2, 0
  br i1 %tobool3, label %if.then4, label %if.end6

if.then4:                                         ; preds = %if.end
  %mInternalStatus5 = getelementptr inbounds %"class.icu_75::PluralRules", ptr %this1, i32 0, i32 3
  %3 = load i32, ptr %mInternalStatus5, align 8
  %4 = load ptr, ptr %status.addr, align 8
  store i32 %3, ptr %4, align 4
  call void @_ZN6icu_7511ICU_Utility15makeBogusStringEv(ptr sret(%"class.icu_75::UnicodeString") align 8 %agg.result)
  br label %return

if.end6:                                          ; preds = %if.end
  %mStandardPluralRanges = getelementptr inbounds %"class.icu_75::PluralRules", ptr %this1, i32 0, i32 2
  %5 = load ptr, ptr %mStandardPluralRanges, align 8
  %cmp = icmp eq ptr %5, null
  br i1 %cmp, label %if.then7, label %if.end8

if.then7:                                         ; preds = %if.end6
  %6 = load ptr, ptr %status.addr, align 8
  store i32 16, ptr %6, align 4
  call void @_ZN6icu_7511ICU_Utility15makeBogusStringEv(ptr sret(%"class.icu_75::UnicodeString") align 8 %agg.result)
  br label %return

if.end8:                                          ; preds = %if.end6
  %7 = load ptr, ptr %impl.addr, align 8
  %quantity1 = getelementptr inbounds %"class.icu_75::number::impl::UFormattedNumberRangeData", ptr %7, i32 0, i32 2
  call void @_ZNK6icu_7511PluralRules6selectERKNS_13IFixedDecimalE(ptr sret(%"class.icu_75::UnicodeString") align 8 %ref.tmp, ptr noundef nonnull align 8 dereferenceable(28) %this1, ptr noundef nonnull align 8 dereferenceable(8) %quantity1)
  %8 = load ptr, ptr %status.addr, align 8
  %call9 = invoke noundef i32 @_ZN6icu_7514StandardPlural10fromStringERKNS_13UnicodeStringER10UErrorCode(ptr noundef nonnull align 8 dereferenceable(64) %ref.tmp, ptr noundef nonnull align 4 dereferenceable(4) %8)
          to label %invoke.cont unwind label %lpad

invoke.cont:                                      ; preds = %if.end8
  call void @_ZN6icu_7513UnicodeStringD1Ev(ptr noundef nonnull align 8 dereferenceable(64) %ref.tmp) #13
  store i32 %call9, ptr %form1, align 4
  %9 = load ptr, ptr %impl.addr, align 8
  %quantity2 = getelementptr inbounds %"class.icu_75::number::impl::UFormattedNumberRangeData", ptr %9, i32 0, i32 3
  call void @_ZNK6icu_7511PluralRules6selectERKNS_13IFixedDecimalE(ptr sret(%"class.icu_75::UnicodeString") align 8 %ref.tmp10, ptr noundef nonnull align 8 dereferenceable(28) %this1, ptr noundef nonnull align 8 dereferenceable(8) %quantity2)
  %10 = load ptr, ptr %status.addr, align 8
  %call13 = invoke noundef i32 @_ZN6icu_7514StandardPlural10fromStringERKNS_13UnicodeStringER10UErrorCode(ptr noundef nonnull align 8 dereferenceable(64) %ref.tmp10, ptr noundef nonnull align 4 dereferenceable(4) %10)
          to label %invoke.cont12 unwind label %lpad11

invoke.cont12:                                    ; preds = %invoke.cont
  call void @_ZN6icu_7513UnicodeStringD1Ev(ptr noundef nonnull align 8 dereferenceable(64) %ref.tmp10) #13
  store i32 %call13, ptr %form2, align 4
  %11 = load ptr, ptr %status.addr, align 8
  %12 = load i32, ptr %11, align 4
  %call14 = call noundef signext i8 @_ZL9U_FAILURE10UErrorCode(i32 noundef %12)
  %tobool15 = icmp ne i8 %call14, 0
  br i1 %tobool15, label %if.then16, label %if.end17

if.then16:                                        ; preds = %invoke.cont12
  call void @_ZN6icu_7511ICU_Utility15makeBogusStringEv(ptr sret(%"class.icu_75::UnicodeString") align 8 %agg.result)
  br label %return

lpad:                                             ; preds = %if.end8
  %13 = landingpad { ptr, i32 }
          cleanup
  %14 = extractvalue { ptr, i32 } %13, 0
  store ptr %14, ptr %exn.slot, align 8
  %15 = extractvalue { ptr, i32 } %13, 1
  store i32 %15, ptr %ehselector.slot, align 4
  call void @_ZN6icu_7513UnicodeStringD1Ev(ptr noundef nonnull align 8 dereferenceable(64) %ref.tmp) #13
  br label %eh.resume

lpad11:                                           ; preds = %invoke.cont
  %16 = landingpad { ptr, i32 }
          cleanup
  %17 = extractvalue { ptr, i32 } %16, 0
  store ptr %17, ptr %exn.slot, align 8
  %18 = extractvalue { ptr, i32 } %16, 1
  store i32 %18, ptr %ehselector.slot, align 4
  call void @_ZN6icu_7513UnicodeStringD1Ev(ptr noundef nonnull align 8 dereferenceable(64) %ref.tmp10) #13
  br label %eh.resume

if.end17:                                         ; preds = %invoke.cont12
  %mStandardPluralRanges18 = getelementptr inbounds %"class.icu_75::PluralRules", ptr %this1, i32 0, i32 2
  %19 = load ptr, ptr %mStandardPluralRanges18, align 8
  %20 = load i32, ptr %form1, align 4
  %21 = load i32, ptr %form2, align 4
  %call19 = call noundef i32 @_ZNK6icu_7520StandardPluralRanges7resolveENS_14StandardPlural4FormES2_(ptr noundef nonnull align 8 dereferenceable(60) %19, i32 noundef %20, i32 noundef %21)
  store i32 %call19, ptr %result, align 4
  %22 = load i32, ptr %result, align 4
  %call20 = call noundef ptr @_ZN6icu_7514StandardPlural10getKeywordENS0_4FormE(i32 noundef %22)
  call void @_ZN6icu_7513UnicodeStringC1EPKciNS0_10EInvariantE(ptr noundef nonnull align 8 dereferenceable(64) %agg.result, ptr noundef %call20, i32 noundef -1, i32 noundef 0)
  br label %return

return:                                           ; preds = %if.end17, %if.then16, %if.then7, %if.then4, %if.then
  ret void

eh.resume:                                        ; preds = %lpad11, %lpad
  %exn = load ptr, ptr %exn.slot, align 8
  %sel = load i32, ptr %ehselector.slot, align 4
  %lpad.val = insertvalue { ptr, i32 } poison, ptr %exn, 0
  %lpad.val21 = insertvalue { ptr, i32 } %lpad.val, i32 %sel, 1
  resume { ptr, i32 } %lpad.val21
}