; Function Attrs: mustprogress uwtable
define void @_ZNK6icu_7511PluralRules6selectEPKNS_6number4impl25UFormattedNumberRangeDataER10UErrorCode(ptr noalias sret(%"class.icu_75::UnicodeString") align 8 %agg.result, ptr nocapture noundef nonnull readonly align 8 dereferenceable(28) %this, ptr noundef %impl, ptr noundef nonnull align 4 dereferenceable(4) %status) local_unnamed_addr #1 align 2 personality ptr @__gxx_personality_v0 {
entry:
  %ref.tmp = alloca %"class.icu_75::UnicodeString", align 8
  %ref.tmp10 = alloca %"class.icu_75::UnicodeString", align 8
  %0 = load i32, ptr %status, align 4
  %cmp.i = icmp slt i32 %0, 1
  br i1 %cmp.i, label %if.end, label %if.then

if.then:                                          ; preds = %entry
  store ptr getelementptr inbounds ({ [13 x ptr] }, ptr @_ZTVN6icu_7513UnicodeStringE, i64 0, i32 0, i64 2), ptr %agg.result, align 8, !alias.scope !28
  %fUnion2.i.i = getelementptr inbounds i8, ptr %agg.result, i64 8
  store i16 2, ptr %fUnion2.i.i, align 8, !alias.scope !28
  invoke void @_ZN6icu_7513UnicodeString10setToBogusEv(ptr noundef nonnull align 8 dereferenceable(64) %agg.result)
          to label %return unwind label %lpad.i

common.resume:                                    ; preds = %lpad, %lpad11, %lpad.i22, %lpad.i14, %lpad.i11, %lpad.i
  %common.resume.op = phi { ptr, i32 } [ %1, %lpad.i ], [ %3, %lpad.i11 ], [ %5, %lpad.i14 ], [ %7, %lpad.i22 ], [ %9, %lpad11 ], [ %8, %lpad ]
  resume { ptr, i32 } %common.resume.op

lpad.i:                                           ; preds = %if.then
  %1 = landingpad { ptr, i32 }
          cleanup
  tail call void @_ZN6icu_7513UnicodeStringD1Ev(ptr noundef nonnull align 8 dereferenceable(64) %agg.result) #25
  br label %common.resume

if.end:                                           ; preds = %entry
  %mInternalStatus = getelementptr inbounds i8, ptr %this, i64 24
  %2 = load i32, ptr %mInternalStatus, align 8
  %cmp.i8 = icmp slt i32 %2, 1
  br i1 %cmp.i8, label %if.end6, label %if.then4

if.then4:                                         ; preds = %if.end
  store i32 %2, ptr %status, align 4
  store ptr getelementptr inbounds ({ [13 x ptr] }, ptr @_ZTVN6icu_7513UnicodeStringE, i64 0, i32 0, i64 2), ptr %agg.result, align 8, !alias.scope !31
  %fUnion2.i.i10 = getelementptr inbounds i8, ptr %agg.result, i64 8
  store i16 2, ptr %fUnion2.i.i10, align 8, !alias.scope !31
  invoke void @_ZN6icu_7513UnicodeString10setToBogusEv(ptr noundef nonnull align 8 dereferenceable(64) %agg.result)
          to label %return unwind label %lpad.i11

lpad.i11:                                         ; preds = %if.then4
  %3 = landingpad { ptr, i32 }
          cleanup
  tail call void @_ZN6icu_7513UnicodeStringD1Ev(ptr noundef nonnull align 8 dereferenceable(64) %agg.result) #25
  br label %common.resume

if.end6:                                          ; preds = %if.end
  %mStandardPluralRanges = getelementptr inbounds i8, ptr %this, i64 16
  %4 = load ptr, ptr %mStandardPluralRanges, align 8
  %cmp = icmp eq ptr %4, null
  br i1 %cmp, label %if.then7, label %if.end8

if.then7:                                         ; preds = %if.end6
  store i32 16, ptr %status, align 4
  store ptr getelementptr inbounds ({ [13 x ptr] }, ptr @_ZTVN6icu_7513UnicodeStringE, i64 0, i32 0, i64 2), ptr %agg.result, align 8, !alias.scope !34
  %fUnion2.i.i13 = getelementptr inbounds i8, ptr %agg.result, i64 8
  store i16 2, ptr %fUnion2.i.i13, align 8, !alias.scope !34
  invoke void @_ZN6icu_7513UnicodeString10setToBogusEv(ptr noundef nonnull align 8 dereferenceable(64) %agg.result)
          to label %return unwind label %lpad.i14

lpad.i14:                                         ; preds = %if.then7
  %5 = landingpad { ptr, i32 }
          cleanup
  tail call void @_ZN6icu_7513UnicodeStringD1Ev(ptr noundef nonnull align 8 dereferenceable(64) %agg.result) #25
  br label %common.resume

if.end8:                                          ; preds = %if.end6
  %quantity1 = getelementptr inbounds i8, ptr %impl, i64 304
  call void @_ZNK6icu_7511PluralRules6selectERKNS_13IFixedDecimalE(ptr nonnull sret(%"class.icu_75::UnicodeString") align 8 %ref.tmp, ptr noundef nonnull align 8 dereferenceable(28) %this, ptr noundef nonnull align 8 dereferenceable(8) %quantity1)
  %call.i16 = invoke noundef i32 @_ZN6icu_7514StandardPlural15indexFromStringERKNS_13UnicodeStringER10UErrorCode(ptr noundef nonnull align 8 dereferenceable(64) %ref.tmp, ptr noundef nonnull align 4 dereferenceable(4) %status)
          to label %invoke.cont unwind label %lpad

invoke.cont:                                      ; preds = %if.end8
  call void @_ZN6icu_7513UnicodeStringD1Ev(ptr noundef nonnull align 8 dereferenceable(64) %ref.tmp) #25
  %quantity2 = getelementptr inbounds i8, ptr %impl, i64 376
  call void @_ZNK6icu_7511PluralRules6selectERKNS_13IFixedDecimalE(ptr nonnull sret(%"class.icu_75::UnicodeString") align 8 %ref.tmp10, ptr noundef nonnull align 8 dereferenceable(28) %this, ptr noundef nonnull align 8 dereferenceable(8) %quantity2)
  %call.i17 = invoke noundef i32 @_ZN6icu_7514StandardPlural15indexFromStringERKNS_13UnicodeStringER10UErrorCode(ptr noundef nonnull align 8 dereferenceable(64) %ref.tmp10, ptr noundef nonnull align 4 dereferenceable(4) %status)
          to label %invoke.cont12 unwind label %lpad11

invoke.cont12:                                    ; preds = %invoke.cont
  call void @_ZN6icu_7513UnicodeStringD1Ev(ptr noundef nonnull align 8 dereferenceable(64) %ref.tmp10) #25
  %6 = load i32, ptr %status, align 4
  %cmp.i19 = icmp slt i32 %6, 1
  br i1 %cmp.i19, label %if.end17, label %if.then16

if.then16:                                        ; preds = %invoke.cont12
  store ptr getelementptr inbounds ({ [13 x ptr] }, ptr @_ZTVN6icu_7513UnicodeStringE, i64 0, i32 0, i64 2), ptr %agg.result, align 8, !alias.scope !37
  %fUnion2.i.i21 = getelementptr inbounds i8, ptr %agg.result, i64 8
  store i16 2, ptr %fUnion2.i.i21, align 8, !alias.scope !37
  invoke void @_ZN6icu_7513UnicodeString10setToBogusEv(ptr noundef nonnull align 8 dereferenceable(64) %agg.result)
          to label %return unwind label %lpad.i22

lpad.i22:                                         ; preds = %if.then16
  %7 = landingpad { ptr, i32 }
          cleanup
  call void @_ZN6icu_7513UnicodeStringD1Ev(ptr noundef nonnull align 8 dereferenceable(64) %agg.result) #25
  br label %common.resume

lpad:                                             ; preds = %if.end8
  %8 = landingpad { ptr, i32 }
          cleanup
  call void @_ZN6icu_7513UnicodeStringD1Ev(ptr noundef nonnull align 8 dereferenceable(64) %ref.tmp) #25
  br label %common.resume

lpad11:                                           ; preds = %invoke.cont
  %9 = landingpad { ptr, i32 }
          cleanup
  call void @_ZN6icu_7513UnicodeStringD1Ev(ptr noundef nonnull align 8 dereferenceable(64) %ref.tmp10) #25
  br label %common.resume

if.end17:                                         ; preds = %invoke.cont12
  %10 = load ptr, ptr %mStandardPluralRanges, align 8
  %call19 = call noundef i32 @_ZNK6icu_7520StandardPluralRanges7resolveENS_14StandardPlural4FormES2_(ptr noundef nonnull align 8 dereferenceable(60) %10, i32 noundef %call.i16, i32 noundef %call.i17)
  %call20 = call noundef ptr @_ZN6icu_7514StandardPlural10getKeywordENS0_4FormE(i32 noundef %call19)
  call void @_ZN6icu_7513UnicodeStringC1EPKciNS0_10EInvariantE(ptr noundef nonnull align 8 dereferenceable(64) %agg.result, ptr noundef %call20, i32 noundef -1, i32 noundef 0)
  br label %return

return:                                           ; preds = %if.then16, %if.then7, %if.then4, %if.then, %if.end17
  ret void
}